Certificate:
    Data:
        Version: 3 (0x2)
        Serial Number: 4 (0x4)
        Signature Algorithm: sha256WithRSAEncryption
        Issuer: C=CN, ST=BeiJing, L=BeiJing, O=Personal, CN=ca.example.com, CN=example.com/emailAddress=test@163.com
        Validity
            Not Before: Jan  8 08:09:47 2024 GMT
            Not After : Jan  7 08:09:47 2025 GMT
        Subject: C=CN, ST=BeiJing, O=Personal, CN=my grpc server/emailAddress=yxx@163.com
        Subject Public Key Info:
            Public Key Algorithm: rsaEncryption
                Public-Key: (2048 bit)
                Modulus:
                    00:e2:d7:24:5c:f9:23:cb:d6:63:3a:a7:22:e2:5c:
                    4a:53:14:cc:f9:91:14:e3:7a:0d:a1:06:ce:36:63:
                    4e:6b:db:ff:a5:a9:60:2f:e1:2c:76:20:c3:02:d4:
                    a9:b0:32:79:7a:a2:cd:ed:1b:b2:39:d0:ec:7e:7d:
                    ae:ad:04:8e:70:c1:39:ac:6f:f2:3c:22:6e:47:12:
                    0c:ce:f0:73:72:1f:70:5c:31:2c:15:5b:00:6f:05:
                    21:53:7c:fc:91:15:2e:a7:89:84:e9:ba:39:55:27:
                    bd:5d:e2:4c:97:46:16:b3:56:0f:c2:96:03:ca:85:
                    dd:17:4f:e8:cb:01:40:c3:fc:c1:ea:75:36:6a:a9:
                    d4:5f:64:03:da:2f:c7:8e:ec:da:04:ef:67:c0:a0:
                    04:17:32:ce:5f:ba:5f:37:63:3e:52:ae:67:ab:b6:
                    5f:a6:cc:50:e8:e1:32:78:e7:86:78:16:e0:cc:d4:
                    5b:82:2e:0c:7c:5f:99:b5:0e:fc:fc:bb:f0:db:da:
                    10:0a:56:a5:8c:9f:d9:0a:c4:78:d5:0a:f2:ab:89:
                    81:28:1f:98:02:6e:11:d2:11:be:7c:49:32:9a:a3:
                    b6:15:af:73:6e:c2:10:a5:86:4b:90:37:6d:5a:c5:
                    05:28:36:21:15:67:94:fb:f2:d0:76:1a:9f:1c:a4:
                    f4:51
                Exponent: 65537 (0x10001)
        X509v3 extensions:
            X509v3 Subject Alternative Name: 
                DNS:my.grpc.com, DNS:my.test.com, IP Address:172.16.1.241
            X509v3 Subject Key Identifier: 
                FA:F0:F5:D3:01:E9:0E:36:68:BE:B6:4A:14:A9:0A:B9:2F:38:2A:84
            X509v3 Authority Key Identifier: 
                15:00:83:A9:AB:4D:BB:F6:72:7F:01:EE:2D:61:1E:8A:1F:1D:19:BD
    Signature Algorithm: sha256WithRSAEncryption
    Signature Value:
        00:0a:f7:28:e1:f1:4a:64:3b:a4:46:25:f5:7c:ca:92:49:1a:
        40:8b:34:86:15:3e:44:ac:08:c2:04:34:b7:d0:3d:a7:96:64:
        cf:26:e7:80:e7:0e:96:28:e5:88:ed:65:b9:98:20:42:60:23:
        5c:bd:ea:3c:1d:de:22:74:b1:d4:1c:8f:7c:21:a6:79:d6:a9:
        4d:d0:ed:15:8e:b4:20:bc:a8:0b:22:ef:a4:fc:c8:ed:0f:40:
        a5:0d:52:18:bd:40:27:c6:70:f1:30:d1:ff:63:b8:0f:6f:4c:
        ee:b6:6c:7d:aa:1d:28:a3:c7:fc:27:77:38:ef:cb:e7:3b:c5:
        9d:66:73:fe:0c:ff:72:b8:5d:54:6d:72:5c:c4:04:7a:66:92:
        cb:7d:bf:1e:95:d1:e2:5e:11:a1:4d:0c:a8:6f:67:26:36:52:
        8e:38:66:c3:7c:ff:05:37:13:02:98:71:9c:53:bf:fa:39:b1:
        4f:4b:ab:40:32:dd:85:28:a3:9f:50:7f:60:53:8b:e5:0a:5f:
        0f:26:41:0f:64:33:f0:0a:1c:bb:35:48:ac:a8:c0:e4:ea:80:
        4a:c7:a4:0e:89:7e:ee:96:0f:92:3b:b7:f4:a3:c9:81:18:4f:
        9c:b5:72:38:37:a5:9f:31:f1:54:d0:c7:82:2b:b5:cb:a8:b5:
        83:93:6b:fc:ec:9c:eb:87:43:17:b2:55:13:b7:23:91:cc:bb:
        52:68:56:73:c6:b3:f7:a3:de:63:bb:98:88:2a:e8:38:fe:c7:
        f9:46:2b:1f:09:64:e2:90:fb:d1:40:75:d0:b3:ff:42:e1:c7:
        76:6c:83:00:4f:65:b9:4b:08:a5:a3:db:1d:c8:13:80:15:b4:
        da:f1:6b:1d:85:a1:4a:6f:7f:70:2d:26:d9:f9:6b:8c:05:51:
        64:e9:2e:1d:fc:eb:78:1b:c1:55:63:32:2e:a1:22:96:1e:a6:
        e5:85:b3:24:97:1e:72:e7:8c:d8:13:d2:b9:6e:d3:6d:93:06:
        c5:01:97:09:b7:43:6d:9c:9a:07:0a:d2:9d:33:e1:5e:40:2f:
        2d:32:67:a4:7d:35:75:70:9a:96:06:f4:60:0a:ca:fe:80:81:
        77:da:22:f3:41:5d:af:40:ee:0a:83:3e:16:a6:cd:63:e0:98:
        7a:ce:44:90:78:a7:d4:94:81:79:a5:5f:bc:34:81:e1:ca:7b:
        55:0c:d5:b4:cf:d0:4f:c3:61:ac:fc:33:51:8b:8a:df:73:99:
        46:3b:1d:4f:f5:d6:37:bd:d6:ce:48:8e:d1:20:da:b6:e8:41:
        63:ad:e2:0b:00:f7:b1:74:cf:b0:1c:3b:33:85:c2:6e:d7:4e:
        24:64:9d:98:bb:fa:1d:1c
-----BEGIN CERTIFICATE-----
MIIE4DCCAsigAwIBAgIBBDANBgkqhkiG9w0BAQsFADCBkDELMAkGA1UEBhMCQ04x
EDAOBgNVBAgMB0JlaUppbmcxEDAOBgNVBAcMB0JlaUppbmcxETAPBgNVBAoMCFBl
cnNvbmFsMRcwFQYDVQQDDA5jYS5leGFtcGxlLmNvbTEUMBIGA1UEAwwLZXhhbXBs
ZS5jb20xGzAZBgkqhkiG9w0BCQEWDHRlc3RAMTYzLmNvbTAeFw0yNDAxMDgwODA5
NDdaFw0yNTAxMDcwODA5NDdaMGcxCzAJBgNVBAYTAkNOMRAwDgYDVQQIDAdCZWlK
aW5nMREwDwYDVQQKDAhQZXJzb25hbDEXMBUGA1UEAwwObXkgZ3JwYyBzZXJ2ZXIx
GjAYBgkqhkiG9w0BCQEWC3l4eEAxNjMuY29tMIIBIjANBgkqhkiG9w0BAQEFAAOC
AQ8AMIIBCgKCAQEA4tckXPkjy9ZjOqci4lxKUxTM+ZEU43oNoQbONmNOa9v/palg
L+EsdiDDAtSpsDJ5eqLN7RuyOdDsfn2urQSOcME5rG/yPCJuRxIMzvBzch9wXDEs
FVsAbwUhU3z8kRUup4mE6bo5VSe9XeJMl0YWs1YPwpYDyoXdF0/oywFAw/zB6nU2
aqnUX2QD2i/HjuzaBO9nwKAEFzLOX7pfN2M+Uq5nq7ZfpsxQ6OEyeOeGeBbgzNRb
gi4MfF+ZtQ78/Lvw29oQClaljJ/ZCsR41Qryq4mBKB+YAm4R0hG+fEkymqO2Fa9z
bsIQpYZLkDdtWsUFKDYhFWeU+/LQdhqfHKT0UQIDAQABo20wazApBgNVHREEIjAg
ggtteS5ncnBjLmNvbYILbXkudGVzdC5jb22HBKwQAfEwHQYDVR0OBBYEFPrw9dMB
6Q42aL62ShSpCrkvOCqEMB8GA1UdIwQYMBaAFBUAg6mrTbv2cn8B7i1hHoofHRm9
MA0GCSqGSIb3DQEBCwUAA4ICAQAACvco4fFKZDukRiX1fMqSSRpAizSGFT5ErAjC
BDS30D2nlmTPJueA5w6WKOWI7WW5mCBCYCNcveo8Hd4idLHUHI98IaZ51qlN0O0V
jrQgvKgLIu+k/MjtD0ClDVIYvUAnxnDxMNH/Y7gPb0zutmx9qh0oo8f8J3c478vn
O8WdZnP+DP9yuF1UbXJcxAR6ZpLLfb8eldHiXhGhTQyob2cmNlKOOGbDfP8FNxMC
mHGcU7/6ObFPS6tAMt2FKKOfUH9gU4vlCl8PJkEPZDPwChy7NUisqMDk6oBKx6QO
iX7ulg+SO7f0o8mBGE+ctXI4N6WfMfFU0MeCK7XLqLWDk2v87Jzrh0MXslUTtyOR
zLtSaFZzxrP3o95ju5iIKug4/sf5RisfCWTikPvRQHXQs/9C4cd2bIMAT2W5Swil
o9sdyBOAFbTa8WsdhaFKb39wLSbZ+WuMBVFk6S4d/Ot4G8FVYzIuoSKWHqblhbMk
lx5y54zYE9K5btNtkwbFAZcJt0NtnJoHCtKdM+FeQC8tMmekfTV1cJqWBvRgCsr+
gIF32iLzQV2vQO4Kgz4Wps1j4Jh6zkSQeKfUlIF5pV+8NIHhyntVDNW0z9BPw2Gs
/DNRi4rfc5lGOx1P9dY3vdbOSI7RINq26EFjreILAPexdM+wHDszhcJu104kZJ2Y
u/odHA==
-----END CERTIFICATE-----
